target datalayout = "e-m:e-p270:32:32-p271:32:32-p272:64:64-i64:64-i128:128-f80:128-n8:16:32:64-S128"
target triple = "x86_64-pc-linux-gnu"

%struct.ldbState = type { ptr, i32, i32, ptr, ptr, ptr, [64 x i32], i32, i32, i32, ptr, i32, i32, ptr, i64, i32 }
%struct.lua_Debug = type { i32, ptr, ptr, ptr, ptr, i32, i32, i32, i32, [60 x i8], i32 }

@ldb = dso_local global %struct.ldbState zeroinitializer, align 8
@.str.110 = private unnamed_addr constant [13 x i8] c"(*temporary)\00", align 1
@.str.111 = private unnamed_addr constant [14 x i8] c"<value> %s = \00", align 1
@.str.112 = private unnamed_addr constant [43 x i8] c"No local variables in the current context.\00", align 1

; Function Attrs: nounwind uwtable
define dso_local ptr @ldbCatStackValue(ptr noundef %0, ptr noundef %1, i32 noundef %2) #0 {
  %4 = alloca ptr, align 8
  %5 = alloca ptr, align 8
  %6 = alloca i32, align 4
  store ptr %0, ptr %4, align 8, !tbaa !16
  store ptr %1, ptr %5, align 8, !tbaa !24
  store i32 %2, ptr %6, align 4, !tbaa !19
  %7 = load ptr, ptr %4, align 8, !tbaa !16
  %8 = load ptr, ptr %5, align 8, !tbaa !24
  %9 = load i32, ptr %6, align 4, !tbaa !19
  %10 = call ptr @ldbCatStackValueRec(ptr noundef %7, ptr noundef %8, i32 noundef %9, i32 noundef 0)
  ret ptr %10
}

; Function Attrs: nounwind uwtable
define dso_local void @ldbLog(ptr noundef %0) #0 {
  %2 = alloca ptr, align 8
  store ptr %0, ptr %2, align 8, !tbaa !16
  %3 = load ptr, ptr getelementptr inbounds nuw (%struct.ldbState, ptr @ldb, i32 0, i32 3), align 8, !tbaa !34
  %4 = load ptr, ptr %2, align 8, !tbaa !16
  %5 = call ptr @listAddNodeTail(ptr noundef %3, ptr noundef %4)
  ret void
}

; Function Attrs: nounwind uwtable
define dso_local void @ldbLogStackValue(ptr noundef %0, ptr noundef %1) #0 {
  %3 = alloca ptr, align 8
  %4 = alloca ptr, align 8
  %5 = alloca ptr, align 8
  store ptr %0, ptr %3, align 8, !tbaa !24
  store ptr %1, ptr %4, align 8, !tbaa !16
  call void @llvm.lifetime.start.p0(i64 8, ptr %5) #14
  %6 = load ptr, ptr %4, align 8, !tbaa !16
  %7 = call ptr @sdsnew(ptr noundef %6)
  store ptr %7, ptr %5, align 8, !tbaa !16
  %8 = load ptr, ptr %5, align 8, !tbaa !16
  %9 = load ptr, ptr %3, align 8, !tbaa !24
  %10 = call ptr @ldbCatStackValue(ptr noundef %8, ptr noundef %9, i32 noundef -1)
  store ptr %10, ptr %5, align 8, !tbaa !16
  %11 = load ptr, ptr %5, align 8, !tbaa !16
  call void @ldbLogWithMaxLen(ptr noundef %11)
  call void @llvm.lifetime.end.p0(i64 8, ptr %5) #14
  ret void
}

; Function Attrs: nounwind uwtable
define dso_local void @ldbPrintAll(ptr noundef %0) #0 {
  %2 = alloca ptr, align 8
  %3 = alloca %struct.lua_Debug, align 8
  %4 = alloca i32, align 4
  %5 = alloca ptr, align 8
  %6 = alloca i32, align 4
  %7 = alloca ptr, align 8
  store ptr %0, ptr %2, align 8, !tbaa !24
  call void @llvm.lifetime.start.p0(i64 120, ptr %3) #14
  call void @llvm.lifetime.start.p0(i64 4, ptr %4) #14
  store i32 0, ptr %4, align 4, !tbaa !19
  %8 = load ptr, ptr %2, align 8, !tbaa !24
  %9 = call i32 @lua_getstack(ptr noundef %8, i32 noundef 0, ptr noundef %3)
  %10 = icmp ne i32 %9, 0
  br i1 %10, label %11, label %35

11:                                               ; preds = %1
  call void @llvm.lifetime.start.p0(i64 8, ptr %5) #14
  call void @llvm.lifetime.start.p0(i64 4, ptr %6) #14
  store i32 1, ptr %6, align 4, !tbaa !19
  br label %12

12:                                               ; preds = %32, %11
  %13 = load ptr, ptr %2, align 8, !tbaa !24
  %14 = load i32, ptr %6, align 4, !tbaa !19
  %15 = call ptr @lua_getlocal(ptr noundef %13, ptr noundef %3, i32 noundef %14)
  store ptr %15, ptr %5, align 8, !tbaa !16
  %16 = icmp ne ptr %15, null
  br i1 %16, label %17, label %34

17:                                               ; preds = %12
  %18 = load i32, ptr %6, align 4, !tbaa !19
  %19 = add nsw i32 %18, 1
  store i32 %19, ptr %6, align 4, !tbaa !19
  %20 = load ptr, ptr %5, align 8, !tbaa !16
  %21 = call ptr @strstr(ptr noundef %20, ptr noundef @.str.110) #13
  %22 = icmp ne ptr %21, null
  br i1 %22, label %32, label %23

23:                                               ; preds = %17
  call void @llvm.lifetime.start.p0(i64 8, ptr %7) #14
  %24 = call ptr @sdsempty()
  %25 = load ptr, ptr %5, align 8, !tbaa !16
  %26 = call ptr (ptr, ptr, ...) @sdscatprintf(ptr noundef %24, ptr noundef @.str.111, ptr noundef %25)
  store ptr %26, ptr %7, align 8, !tbaa !16
  %27 = load ptr, ptr %2, align 8, !tbaa !24
  %28 = load ptr, ptr %7, align 8, !tbaa !16
  call void @ldbLogStackValue(ptr noundef %27, ptr noundef %28)
  %29 = load ptr, ptr %7, align 8, !tbaa !16
  call void @sdsfree(ptr noundef %29)
  %30 = load i32, ptr %4, align 4, !tbaa !19
  %31 = add nsw i32 %30, 1
  store i32 %31, ptr %4, align 4, !tbaa !19
  call void @llvm.lifetime.end.p0(i64 8, ptr %7) #14
  br label %32

32:                                               ; preds = %23, %17
  %33 = load ptr, ptr %2, align 8, !tbaa !24
  call void @lua_settop(ptr noundef %33, i32 noundef -2)
  br label %12, !llvm.loop !180

34:                                               ; preds = %12
  call void @llvm.lifetime.end.p0(i64 4, ptr %6) #14
  call void @llvm.lifetime.end.p0(i64 8, ptr %5) #14
  br label %35

35:                                               ; preds = %34, %1
  %36 = load i32, ptr %4, align 4, !tbaa !19
  %37 = icmp eq i32 %36, 0
  br i1 %37, label %38, label %40

38:                                               ; preds = %35
  %39 = call ptr @sdsnew(ptr noundef @.str.112)
  call void @ldbLog(ptr noundef %39)
  br label %40

40:                                               ; preds = %38, %35
  call void @llvm.lifetime.end.p0(i64 4, ptr %4) #14
  call void @llvm.lifetime.end.p0(i64 120, ptr %3) #14
  ret void
}