; Function Attrs: nounwind uwtable
define dso_local void @ldbPrintAll(ptr noundef %0) local_unnamed_addr #0 {
  %2 = alloca %struct.lua_Debug, align 8
  call void @llvm.lifetime.start.p0(i64 120, ptr nonnull %2) #19
  %3 = call i32 @lua_getstack(ptr noundef %0, i32 noundef 0, ptr noundef nonnull %2) #19
  %.not = icmp eq i32 %3, 0
  br i1 %.not, label %.critedge, label %.preheader

.preheader:                                       ; preds = %1
  %4 = call ptr @lua_getlocal(ptr noundef %0, ptr noundef nonnull %2, i32 noundef 1) #19
  %.not1315 = icmp eq ptr %4, null
  br i1 %.not1315, label %.critedge, label %.lr.ph

.lr.ph:                                           ; preds = %.preheader, %14
  %5 = phi ptr [ %15, %14 ], [ %4, %.preheader ]
  %.117 = phi i32 [ %.2, %14 ], [ 0, %.preheader ]
  %.01116 = phi i32 [ %6, %14 ], [ 1, %.preheader ]
  %6 = add nuw nsw i32 %.01116, 1
  %7 = call ptr @strstr(ptr noundef nonnull dereferenceable(1) %5, ptr noundef nonnull dereferenceable(1) @.str.110) #18
  %.not14 = icmp eq ptr %7, null
  br i1 %.not14, label %8, label %14

8:                                                ; preds = %.lr.ph
  %9 = call ptr @sdsempty() #19
  %10 = call ptr (ptr, ptr, ...) @sdscatprintf(ptr noundef %9, ptr noundef nonnull @.str.111, ptr noundef nonnull %5) #19
  %11 = call ptr @sdsnew(ptr noundef %10) #19
  %12 = call ptr @ldbCatStackValueRec(ptr noundef %11, ptr noundef %0, i32 noundef -1, i32 noundef 0)
  call void @ldbLogWithMaxLen(ptr noundef %12)
  call void @sdsfree(ptr noundef %10) #19
  %13 = add nsw i32 %.117, 1
  br label %14

14:                                               ; preds = %8, %.lr.ph
  %.2 = phi i32 [ %.117, %.lr.ph ], [ %13, %8 ]
  call void @lua_settop(ptr noundef %0, i32 noundef -2) #19
  %15 = call ptr @lua_getlocal(ptr noundef %0, ptr noundef nonnull %2, i32 noundef %6) #19
  %.not13 = icmp eq ptr %15, null
  br i1 %.not13, label %._crit_edge, label %.lr.ph, !llvm.loop !163

._crit_edge:                                      ; preds = %14
  %16 = icmp eq i32 %.2, 0
  br i1 %16, label %.critedge, label %20

.critedge:                                        ; preds = %.preheader, %1, %._crit_edge
  %17 = call ptr @sdsnew(ptr noundef nonnull @.str.112) #19
  %18 = load ptr, ptr getelementptr inbounds nuw (i8, ptr @ldb, i64 16), align 8, !tbaa !26
  %19 = call ptr @listAddNodeTail(ptr noundef %18, ptr noundef %17) #19
  br label %20

20:                                               ; preds = %.critedge, %._crit_edge
  call void @llvm.lifetime.end.p0(i64 120, ptr nonnull %2) #19
  ret void
}